target datalayout = "e-m:e-p270:32:32-p271:32:32-p272:64:64-i64:64-i128:128-f80:128-n8:16:32:64-S128"
target triple = "x86_64-pc-linux-gnu"

%struct.PREDICATELOCKTARGETTAG = type { i32, i32, i32, i32 }
%struct.LWLock = type { i16, %struct.pg_atomic_uint32, %struct.proclist_head }
%struct.pg_atomic_uint32 = type { i32 }
%struct.proclist_head = type { i32, i32 }
%struct.dlist_head = type { %struct.dlist_node }
%struct.dlist_node = type { ptr, ptr }
%struct.SERIALIZABLEXACT = type { %struct.VirtualTransactionId, i64, i64, %union.anon, %struct.dlist_head, %struct.dlist_head, %struct.dlist_head, %struct.dlist_node, %struct.dlist_node, %struct.LWLock, %struct.dlist_head, i32, i32, i32, i32, i32, i32 }
%struct.VirtualTransactionId = type { i32, i32 }
%union.anon = type { i64 }
%struct.SnapshotData = type { i32, i32, i32, ptr, i32, ptr, i32, i8, i8, i8, i32, i32, ptr, i32, i32, %struct.pairingheap_node, i64 }
%struct.pairingheap_node = type { ptr, ptr, ptr }
%struct.RelationData = type { %struct.RelFileLocator, ptr, i32, i32, i8, i8, i8, i8, i8, i32, i32, i32, i32, ptr, ptr, i32, %struct.LockInfoData, ptr, ptr, ptr, ptr, ptr, i8, ptr, ptr, ptr, ptr, ptr, ptr, i32, ptr, i8, ptr, ptr, i32, i8, i32, ptr, i8, ptr, ptr, ptr, ptr, ptr, ptr, ptr, i32, ptr, ptr, ptr, ptr, ptr, ptr, ptr, ptr, ptr, ptr, ptr, ptr, ptr, ptr, ptr, ptr, ptr, ptr, ptr, i32, i8, ptr }
%struct.RelFileLocator = type { i32, i32, i32 }
%struct.LockInfoData = type { %struct.LockRelId }
%struct.LockRelId = type { i32, i32 }
%struct.LOCALPREDICATELOCK = type { %struct.PREDICATELOCKTARGETTAG, i8, i32 }
%struct.FormData_pg_class = type { i32, %struct.nameData, i32, i32, i32, i32, i32, i32, i32, i32, float, i32, i32, i8, i8, i8, i8, i16, i16, i8, i8, i8, i8, i8, i8, i8, i8, i32, i32, i32 }
%struct.nameData = type { [64 x i8] }
%struct.ItemPointerData = type { %struct.BlockIdData, i16 }
%struct.BlockIdData = type { i16, i16 }

@MySerializableXact = internal global ptr null, align 8
@LocalPredicateLockHash = internal global ptr null, align 8

; Function Attrs: inlinehint nounwind uwtable
define internal i32 @BlockIdGetBlockNumber(ptr noundef %0) #3 {
  %2 = alloca ptr, align 8
  store ptr %0, ptr %2, align 8
  %3 = load ptr, ptr %2, align 8
  %4 = getelementptr inbounds nuw %struct.BlockIdData, ptr %3, i32 0, i32 0
  %5 = load i16, ptr %4, align 2
  %6 = zext i16 %5 to i32
  %7 = shl i32 %6, 16
  %8 = load ptr, ptr %2, align 8
  %9 = getelementptr inbounds nuw %struct.BlockIdData, ptr %8, i32 0, i32 1
  %10 = load i16, ptr %9, align 2
  %11 = zext i16 %10 to i32
  %12 = or i32 %7, %11
  ret i32 %12
}

; Function Attrs: inlinehint nounwind uwtable
define internal zeroext i16 @ItemPointerGetOffsetNumberNoCheck(ptr noundef %0) #3 {
  %2 = alloca ptr, align 8
  store ptr %0, ptr %2, align 8
  %3 = load ptr, ptr %2, align 8
  %4 = getelementptr inbounds nuw %struct.ItemPointerData, ptr %3, i32 0, i32 1
  %5 = load i16, ptr %4, align 2
  ret i16 %5
}

; Function Attrs: inlinehint nounwind uwtable
define internal i32 @ItemPointerGetBlockNumberNoCheck(ptr noundef %0) #3 {
  %2 = alloca ptr, align 8
  store ptr %0, ptr %2, align 8
  %3 = load ptr, ptr %2, align 8
  %4 = getelementptr inbounds nuw %struct.ItemPointerData, ptr %3, i32 0, i32 0
  %5 = call i32 @BlockIdGetBlockNumber(ptr noundef %4)
  ret i32 %5
}

; Function Attrs: inlinehint nounwind uwtable
define internal zeroext i1 @PredicateLockingNeededForRelation(ptr noundef %0) #3 {
  %2 = alloca ptr, align 8
  store ptr %0, ptr %2, align 8
  %3 = load ptr, ptr %2, align 8
  %4 = getelementptr inbounds nuw %struct.RelationData, ptr %3, i32 0, i32 15
  %5 = load i32, ptr %4, align 8
  %6 = icmp ult i32 %5, 12000
  br i1 %6, label %15, label %7

7:                                                ; preds = %1
  %8 = load ptr, ptr %2, align 8
  %9 = getelementptr inbounds nuw %struct.RelationData, ptr %8, i32 0, i32 13
  %10 = load ptr, ptr %9, align 8
  %11 = getelementptr inbounds nuw %struct.FormData_pg_class, ptr %10, i32 0, i32 15
  %12 = load i8, ptr %11, align 2
  %13 = sext i8 %12 to i32
  %14 = icmp eq i32 %13, 116
  br label %15

15:                                               ; preds = %7, %1
  %16 = phi i1 [ true, %1 ], [ %14, %7 ]
  %17 = xor i1 %16, true
  ret i1 %17
}

; Function Attrs: inlinehint nounwind uwtable
define internal zeroext i16 @ItemPointerGetOffsetNumber(ptr noundef %0) #3 {
  %2 = alloca ptr, align 8
  store ptr %0, ptr %2, align 8
  %3 = load ptr, ptr %2, align 8
  %4 = call zeroext i16 @ItemPointerGetOffsetNumberNoCheck(ptr noundef %3)
  ret i16 %4
}

; Function Attrs: inlinehint nounwind uwtable
define internal i32 @ItemPointerGetBlockNumber(ptr noundef %0) #3 {
  %2 = alloca ptr, align 8
  store ptr %0, ptr %2, align 8
  %3 = load ptr, ptr %2, align 8
  %4 = call i32 @ItemPointerGetBlockNumberNoCheck(ptr noundef %3)
  ret i32 %4
}

; Function Attrs: nounwind uwtable
define internal zeroext i1 @PredicateLockExists(ptr noundef %0) #0 {
  %2 = alloca i1, align 1
  %3 = alloca ptr, align 8
  %4 = alloca ptr, align 8
  %5 = alloca i32, align 4
  store ptr %0, ptr %3, align 8
  call void @llvm.lifetime.start.p0(i64 8, ptr %4) #10
  %6 = load ptr, ptr @LocalPredicateLockHash, align 8
  %7 = load ptr, ptr %3, align 8
  %8 = call ptr @hash_search(ptr noundef %6, ptr noundef %7, i32 noundef 0, ptr noundef null)
  store ptr %8, ptr %4, align 8
  %9 = load ptr, ptr %4, align 8
  %10 = icmp ne ptr %9, null
  br i1 %10, label %12, label %11

11:                                               ; preds = %1
  store i1 false, ptr %2, align 1
  store i32 1, ptr %5, align 4
  br label %17

12:                                               ; preds = %1
  %13 = load ptr, ptr %4, align 8
  %14 = getelementptr inbounds nuw %struct.LOCALPREDICATELOCK, ptr %13, i32 0, i32 1
  %15 = load i8, ptr %14, align 4, !range !4, !noundef !5
  %16 = trunc i8 %15 to i1
  store i1 %16, ptr %2, align 1
  store i32 1, ptr %5, align 4
  br label %17

17:                                               ; preds = %12, %11
  call void @llvm.lifetime.end.p0(i64 8, ptr %4) #10
  %18 = load i1, ptr %2, align 1
  ret i1 %18
}

; Function Attrs: inlinehint nounwind uwtable
define internal zeroext i1 @SerializationNeededForRead(ptr noundef %0, ptr noundef %1) #3 {
  %3 = alloca i1, align 1
  %4 = alloca ptr, align 8
  %5 = alloca ptr, align 8
  store ptr %0, ptr %4, align 8
  store ptr %1, ptr %5, align 8
  %6 = load ptr, ptr @MySerializableXact, align 8
  %7 = icmp eq ptr %6, null
  br i1 %7, label %8, label %9

8:                                                ; preds = %2
  store i1 false, ptr %3, align 1
  br label %32

9:                                                ; preds = %2
  %10 = load ptr, ptr %5, align 8
  %11 = getelementptr inbounds nuw %struct.SnapshotData, ptr %10, i32 0, i32 0
  %12 = load i32, ptr %11, align 8
  %13 = icmp eq i32 %12, 0
  br i1 %13, label %20, label %14

14:                                               ; preds = %9
  %15 = load ptr, ptr %5, align 8
  %16 = getelementptr inbounds nuw %struct.SnapshotData, ptr %15, i32 0, i32 0
  %17 = load i32, ptr %16, align 8
  %18 = icmp eq i32 %17, 5
  br i1 %18, label %20, label %19

19:                                               ; preds = %14
  store i1 false, ptr %3, align 1
  br label %32

20:                                               ; preds = %14, %9
  %21 = load ptr, ptr @MySerializableXact, align 8
  %22 = getelementptr inbounds nuw %struct.SERIALIZABLEXACT, ptr %21, i32 0, i32 14
  %23 = load i32, ptr %22, align 4
  %24 = and i32 %23, 128
  %25 = icmp ne i32 %24, 0
  br i1 %25, label %26, label %27

26:                                               ; preds = %20
  call void @ReleasePredicateLocks(i1 noundef zeroext false, i1 noundef zeroext true)
  store i1 false, ptr %3, align 1
  br label %32

27:                                               ; preds = %20
  %28 = load ptr, ptr %4, align 8
  %29 = call zeroext i1 @PredicateLockingNeededForRelation(ptr noundef %28)
  br i1 %29, label %31, label %30

30:                                               ; preds = %27
  store i1 false, ptr %3, align 1
  br label %32

31:                                               ; preds = %27
  store i1 true, ptr %3, align 1
  br label %32

32:                                               ; preds = %31, %30, %26, %19, %8
  %33 = load i1, ptr %3, align 1
  ret i1 %33
}

; Function Attrs: nounwind uwtable
define dso_local void @PredicateLockTID(ptr noundef %0, ptr noundef %1, ptr noundef %2, i32 noundef %3) #0 {
  %5 = alloca ptr, align 8
  %6 = alloca ptr, align 8
  %7 = alloca ptr, align 8
  %8 = alloca i32, align 4
  %9 = alloca %struct.PREDICATELOCKTARGETTAG, align 4
  %10 = alloca i32, align 4
  store ptr %0, ptr %5, align 8
  store ptr %1, ptr %6, align 8
  store ptr %2, ptr %7, align 8
  store i32 %3, ptr %8, align 4
  call void @llvm.lifetime.start.p0(i64 16, ptr %9) #10
  %11 = load ptr, ptr %5, align 8
  %12 = load ptr, ptr %7, align 8
  %13 = call zeroext i1 @SerializationNeededForRead(ptr noundef %11, ptr noundef %12)
  br i1 %13, label %15, label %14

14:                                               ; preds = %4
  store i32 1, ptr %10, align 4
  br label %56

15:                                               ; preds = %4
  %16 = load ptr, ptr %5, align 8
  %17 = getelementptr inbounds nuw %struct.RelationData, ptr %16, i32 0, i32 48
  %18 = load ptr, ptr %17, align 8
  %19 = icmp eq ptr %18, null
  br i1 %19, label %20, label %25

20:                                               ; preds = %15
  %21 = load i32, ptr %8, align 4
  %22 = call zeroext i1 @TransactionIdIsCurrentTransactionId(i32 noundef %21)
  br i1 %22, label %23, label %24

23:                                               ; preds = %20
  store i32 1, ptr %10, align 4
  br label %56

24:                                               ; preds = %20
  br label %25

25:                                               ; preds = %24, %15
  %26 = load ptr, ptr %5, align 8
  %27 = getelementptr inbounds nuw %struct.RelationData, ptr %26, i32 0, i32 0
  %28 = getelementptr inbounds nuw %struct.RelFileLocator, ptr %27, i32 0, i32 1
  %29 = load i32, ptr %28, align 4
  %30 = getelementptr inbounds nuw %struct.PREDICATELOCKTARGETTAG, ptr %9, i32 0, i32 0
  store i32 %29, ptr %30, align 4
  %31 = load ptr, ptr %5, align 8
  %32 = getelementptr inbounds nuw %struct.RelationData, ptr %31, i32 0, i32 15
  %33 = load i32, ptr %32, align 8
  %34 = getelementptr inbounds nuw %struct.PREDICATELOCKTARGETTAG, ptr %9, i32 0, i32 1
  store i32 %33, ptr %34, align 4
  %35 = getelementptr inbounds nuw %struct.PREDICATELOCKTARGETTAG, ptr %9, i32 0, i32 2
  store i32 -1, ptr %35, align 4
  %36 = getelementptr inbounds nuw %struct.PREDICATELOCKTARGETTAG, ptr %9, i32 0, i32 3
  store i32 0, ptr %36, align 4
  %37 = call zeroext i1 @PredicateLockExists(ptr noundef %9)
  br i1 %37, label %38, label %39

38:                                               ; preds = %25
  store i32 1, ptr %10, align 4
  br label %56

39:                                               ; preds = %25
  %40 = load ptr, ptr %5, align 8
  %41 = getelementptr inbounds nuw %struct.RelationData, ptr %40, i32 0, i32 0
  %42 = getelementptr inbounds nuw %struct.RelFileLocator, ptr %41, i32 0, i32 1
  %43 = load i32, ptr %42, align 4
  %44 = getelementptr inbounds nuw %struct.PREDICATELOCKTARGETTAG, ptr %9, i32 0, i32 0
  store i32 %43, ptr %44, align 4
  %45 = load ptr, ptr %5, align 8
  %46 = getelementptr inbounds nuw %struct.RelationData, ptr %45, i32 0, i32 15
  %47 = load i32, ptr %46, align 8
  %48 = getelementptr inbounds nuw %struct.PREDICATELOCKTARGETTAG, ptr %9, i32 0, i32 1
  store i32 %47, ptr %48, align 4
  %49 = load ptr, ptr %6, align 8
  %50 = call i32 @ItemPointerGetBlockNumber(ptr noundef %49)
  %51 = getelementptr inbounds nuw %struct.PREDICATELOCKTARGETTAG, ptr %9, i32 0, i32 2
  store i32 %50, ptr %51, align 4
  %52 = load ptr, ptr %6, align 8
  %53 = call zeroext i16 @ItemPointerGetOffsetNumber(ptr noundef %52)
  %54 = zext i16 %53 to i32
  %55 = getelementptr inbounds nuw %struct.PREDICATELOCKTARGETTAG, ptr %9, i32 0, i32 3
  store i32 %54, ptr %55, align 4
  call void @PredicateLockAcquire(ptr noundef %9)
  store i32 0, ptr %10, align 4
  br label %56

56:                                               ; preds = %39, %38, %23, %14
  call void @llvm.lifetime.end.p0(i64 16, ptr %9) #10
  %57 = load i32, ptr %10, align 4
  switch i32 %57, label %59 [
    i32 0, label %58
    i32 1, label %58
  ]

58:                                               ; preds = %56, %56
  ret void

59:                                               ; preds = %56
  unreachable
}