; Function Attrs: nounwind uwtable
define dso_local void @PredicateLockTID(ptr noundef readonly captures(none) %0, ptr noundef readonly captures(none) %1, ptr noundef readonly captures(none) %2, i32 noundef %3) local_unnamed_addr #0 {
  %5 = alloca %struct.PREDICATELOCKTARGETTAG, align 4
  call void @llvm.lifetime.start.p0(i64 16, ptr nonnull %5) #12
  %6 = load ptr, ptr @MySerializableXact, align 8
  %7 = icmp eq ptr %6, null
  br i1 %7, label %SerializationNeededForRead.exit.thread, label %8

8:                                                ; preds = %4
  %9 = load i32, ptr %2, align 8
  switch i32 %9, label %SerializationNeededForRead.exit.thread [
    i32 0, label %10
    i32 5, label %10
  ]

10:                                               ; preds = %8, %8
  %11 = getelementptr inbounds nuw i8, ptr %6, i64 156
  %12 = load i32, ptr %11, align 4
  %13 = and i32 %12, 128
  %.not.i = icmp eq i32 %13, 0
  br i1 %.not.i, label %15, label %14

14:                                               ; preds = %10
  tail call void @ReleasePredicateLocks(i1 noundef zeroext false, i1 noundef zeroext true)
  br label %SerializationNeededForRead.exit.thread

15:                                               ; preds = %10
  %16 = getelementptr inbounds nuw i8, ptr %0, i64 72
  %17 = load i32, ptr %16, align 8
  %18 = icmp ult i32 %17, 12000
  br i1 %18, label %SerializationNeededForRead.exit.thread, label %SerializationNeededForRead.exit

SerializationNeededForRead.exit:                  ; preds = %15
  %19 = getelementptr inbounds nuw i8, ptr %0, i64 56
  %20 = load ptr, ptr %19, align 8
  %21 = getelementptr inbounds nuw i8, ptr %20, i64 114
  %22 = load i8, ptr %21, align 2
  %.not = icmp eq i8 %22, 116
  br i1 %.not, label %SerializationNeededForRead.exit.thread, label %23

23:                                               ; preds = %SerializationNeededForRead.exit
  %24 = getelementptr inbounds nuw i8, ptr %0, i64 328
  %25 = load ptr, ptr %24, align 8
  %26 = icmp eq ptr %25, null
  br i1 %26, label %27, label %29

27:                                               ; preds = %23
  %28 = tail call zeroext i1 @TransactionIdIsCurrentTransactionId(i32 noundef %3) #12
  br i1 %28, label %SerializationNeededForRead.exit.thread, label %._crit_edge

._crit_edge:                                      ; preds = %27
  %.pre = load i32, ptr %16, align 8
  br label %29

29:                                               ; preds = %._crit_edge, %23
  %30 = phi i32 [ %.pre, %._crit_edge ], [ %17, %23 ]
  %31 = getelementptr inbounds nuw i8, ptr %0, i64 4
  %32 = load i32, ptr %31, align 4
  store i32 %32, ptr %5, align 4
  %33 = getelementptr inbounds nuw i8, ptr %5, i64 4
  store i32 %30, ptr %33, align 4
  %34 = getelementptr inbounds nuw i8, ptr %5, i64 8
  store i32 -1, ptr %34, align 4
  %35 = getelementptr inbounds nuw i8, ptr %5, i64 12
  store i32 0, ptr %35, align 4
  %36 = load ptr, ptr @LocalPredicateLockHash, align 8
  %37 = call ptr @hash_search(ptr noundef %36, ptr noundef nonnull %5, i32 noundef 0, ptr noundef null) #12
  %.not.i11 = icmp eq ptr %37, null
  br i1 %.not.i11, label %PredicateLockExists.exit.thread, label %PredicateLockExists.exit

PredicateLockExists.exit:                         ; preds = %29
  %38 = getelementptr inbounds nuw i8, ptr %37, i64 16
  %39 = load i8, ptr %38, align 4, !range !4, !noundef !5
  %40 = trunc nuw i8 %39 to i1
  br i1 %40, label %SerializationNeededForRead.exit.thread, label %PredicateLockExists.exit.thread

PredicateLockExists.exit.thread:                  ; preds = %29, %PredicateLockExists.exit
  %41 = load i32, ptr %31, align 4
  store i32 %41, ptr %5, align 4
  %42 = load i32, ptr %16, align 8
  store i32 %42, ptr %33, align 4
  %.val = load i16, ptr %1, align 2
  %43 = getelementptr i8, ptr %1, i64 2
  %.val9 = load i16, ptr %43, align 2
  %44 = zext i16 %.val to i32
  %45 = shl nuw i32 %44, 16
  %46 = zext i16 %.val9 to i32
  %47 = or disjoint i32 %45, %46
  store i32 %47, ptr %34, align 4
  %48 = getelementptr i8, ptr %1, i64 4
  %.val10 = load i16, ptr %48, align 2
  %49 = zext i16 %.val10 to i32
  store i32 %49, ptr %35, align 4
  call fastcc void @PredicateLockAcquire(ptr noundef %5)
  br label %SerializationNeededForRead.exit.thread

SerializationNeededForRead.exit.thread:           ; preds = %15, %8, %4, %14, %PredicateLockExists.exit, %27, %SerializationNeededForRead.exit, %PredicateLockExists.exit.thread
  call void @llvm.lifetime.end.p0(i64 16, ptr nonnull %5) #12
  ret void
}